target datalayout = "e-m:e-p270:32:32-p271:32:32-p272:64:64-i64:64-i128:128-f80:128-n8:16:32:64-S128"
target triple = "x86_64-pc-linux-gnu"

%struct._zval_struct = type { %union._zend_value, %union.anon, %union.anon.2 }
%union._zend_value = type { i64 }
%union.anon = type { i32 }
%union.anon.2 = type { i32 }
%union._zend_function = type { %struct._zend_op_array }
%struct._zend_op_array = type { i8, [3 x i8], i32, ptr, ptr, ptr, i32, i32, ptr, ptr, ptr, ptr, i32, ptr, i32, i32, i32, ptr, ptr, ptr, ptr, ptr, i32, i32, ptr, ptr, ptr, i32, i32, i32, i32, ptr, ptr, [6 x ptr] }
%struct._zend_refcounted_h = type { i32, %union.anon.4 }
%union.anon.4 = type { i32 }
%struct._zend_closure = type { %struct._zend_object, %union._zend_function, %struct._zval_struct, ptr, ptr }
%struct._zend_object = type { %struct._zend_refcounted_h, i32, i32, ptr, ptr, ptr, [1 x %struct._zval_struct] }
%struct.anon.3 = type { i8, [3 x i8], i32, ptr, ptr, ptr, i32, i32, ptr, ptr, ptr, ptr, i32, ptr }

; Function Attrs: nounwind uwtable
define dso_local void @zend_create_closure(ptr noundef %0, ptr noundef %1, ptr noundef %2, ptr noundef %3, ptr noundef %4) #0 {
  %6 = alloca ptr, align 8
  %7 = alloca ptr, align 8
  %8 = alloca ptr, align 8
  %9 = alloca ptr, align 8
  %10 = alloca ptr, align 8
  store ptr %0, ptr %6, align 8, !tbaa !9
  store ptr %1, ptr %7, align 8, !tbaa !17
  store ptr %2, ptr %8, align 8, !tbaa !47
  store ptr %3, ptr %9, align 8, !tbaa !47
  store ptr %4, ptr %10, align 8, !tbaa !9
  %11 = load ptr, ptr %6, align 8, !tbaa !9
  %12 = load ptr, ptr %7, align 8, !tbaa !17
  %13 = load ptr, ptr %8, align 8, !tbaa !47
  %14 = load ptr, ptr %9, align 8, !tbaa !47
  %15 = load ptr, ptr %10, align 8, !tbaa !9
  %16 = load ptr, ptr %7, align 8, !tbaa !17
  %17 = getelementptr inbounds nuw %struct.anon.3, ptr %16, i32 0, i32 2
  %18 = load i32, ptr %17, align 4, !tbaa !20
  %19 = and i32 %18, 8388608
  %20 = icmp ne i32 %19, 0
  call void @zend_create_closure_ex(ptr noundef %11, ptr noundef %12, ptr noundef %13, ptr noundef %14, ptr noundef %15, i1 noundef zeroext %20)
  ret void
}

; Function Attrs: nounwind uwtable
define internal ptr @zend_closure_clone(ptr noundef %0) #0 {
  %2 = alloca ptr, align 8
  %3 = alloca ptr, align 8
  %4 = alloca %struct._zval_struct, align 8
  store ptr %0, ptr %2, align 8, !tbaa !33
  call void @llvm.lifetime.start.p0(i64 8, ptr %3) #11
  %5 = load ptr, ptr %2, align 8, !tbaa !33
  store ptr %5, ptr %3, align 8, !tbaa !40
  call void @llvm.lifetime.start.p0(i64 16, ptr %4) #11
  %6 = load ptr, ptr %3, align 8, !tbaa !40
  %7 = getelementptr inbounds nuw %struct._zend_closure, ptr %6, i32 0, i32 1
  %8 = load ptr, ptr %3, align 8, !tbaa !40
  %9 = getelementptr inbounds nuw %struct._zend_closure, ptr %8, i32 0, i32 1
  %10 = getelementptr inbounds nuw %struct.anon.3, ptr %9, i32 0, i32 4
  %11 = load ptr, ptr %10, align 8, !tbaa !20
  %12 = load ptr, ptr %3, align 8, !tbaa !40
  %13 = getelementptr inbounds nuw %struct._zend_closure, ptr %12, i32 0, i32 3
  %14 = load ptr, ptr %13, align 8, !tbaa !42
  %15 = load ptr, ptr %3, align 8, !tbaa !40
  %16 = getelementptr inbounds nuw %struct._zend_closure, ptr %15, i32 0, i32 2
  call void @zend_create_closure(ptr noundef %4, ptr noundef %7, ptr noundef %11, ptr noundef %14, ptr noundef %16)
  %17 = getelementptr inbounds nuw %struct._zval_struct, ptr %4, i32 0, i32 0
  %18 = load ptr, ptr %17, align 8, !tbaa !20
  call void @llvm.lifetime.end.p0(i64 16, ptr %4) #11
  call void @llvm.lifetime.end.p0(i64 8, ptr %3) #11
  ret ptr %18
}