; Function Attrs: nounwind uwtable
define internal ptr @zend_closure_clone(ptr noundef captures(address_is_null) %0) #0 {
  %2 = alloca %struct._zval_struct, align 8
  call void @llvm.lifetime.start.p0(i64 16, ptr nonnull %2) #13
  %3 = getelementptr inbounds nuw i8, ptr %0, i64 56
  %4 = getelementptr inbounds nuw i8, ptr %0, i64 72
  %5 = load ptr, ptr %4, align 8, !tbaa !15
  %6 = getelementptr inbounds nuw i8, ptr %0, i64 328
  %7 = load ptr, ptr %6, align 8, !tbaa !18
  %8 = getelementptr inbounds nuw i8, ptr %0, i64 312
  %9 = getelementptr inbounds nuw i8, ptr %0, i64 60
  %10 = load i32, ptr %9, align 4, !tbaa !15
  %11 = and i32 %10, 8388608
  %12 = icmp ne i32 %11, 0
  call fastcc void @zend_create_closure_ex(ptr noundef nonnull %2, ptr noundef nonnull %3, ptr noundef %5, ptr noundef %7, ptr noundef nonnull %8, i1 noundef zeroext %12)
  %13 = load ptr, ptr %2, align 8, !tbaa !15
  call void @llvm.lifetime.end.p0(i64 16, ptr nonnull %2) #13
  ret ptr %13
}